target datalayout = "e-m:e-p270:32:32-p271:32:32-p272:64:64-i64:64-i128:128-f80:128-n8:16:32:64-S128"
target triple = "x86_64-pc-linux-gnu"

@die_is_recursing_builtin.dying = internal global i32 0, align 4
@.str.11 = private unnamed_addr constant [65 x i8] c"die() called many times. Recursion error or racy threaded death!\00", align 1

; Function Attrs: nounwind uwtable
define internal i32 @die_is_recursing_builtin() #0 {
  %1 = alloca i32, align 4
  %2 = load i32, ptr @die_is_recursing_builtin.dying, align 4, !tbaa !10
  %3 = add nsw i32 %2, 1
  store i32 %3, ptr @die_is_recursing_builtin.dying, align 4, !tbaa !10
  %4 = load i32, ptr @die_is_recursing_builtin.dying, align 4, !tbaa !10
  %5 = icmp sgt i32 %4, 1024
  br i1 %5, label %6, label %7

6:                                                ; preds = %0
  store i32 1, ptr %1, align 4
  br label %12

7:                                                ; preds = %0
  %8 = load i32, ptr @die_is_recursing_builtin.dying, align 4, !tbaa !10
  %9 = icmp eq i32 %8, 2
  br i1 %9, label %10, label %11

10:                                               ; preds = %7
  call void (ptr, ...) @warning(ptr noundef @.str.11)
  store i32 0, ptr %1, align 4
  br label %12

11:                                               ; preds = %7
  store i32 0, ptr %1, align 4
  br label %12

12:                                               ; preds = %11, %10, %6
  %13 = load i32, ptr %1, align 4
  ret i32 %13
}