; Function Attrs: nounwind uwtable
define internal range(i32 0, 2) i32 @die_is_recursing_builtin() #6 {
  %1 = load i32, ptr @die_is_recursing_builtin.dying, align 4, !tbaa !12
  %2 = add nsw i32 %1, 1
  store i32 %2, ptr @die_is_recursing_builtin.dying, align 4, !tbaa !12
  %3 = icmp sgt i32 %1, 1023
  br i1 %3, label %7, label %4

4:                                                ; preds = %0
  %5 = icmp eq i32 %2, 2
  br i1 %5, label %6, label %7

6:                                                ; preds = %4
  tail call void (ptr, ...) @warning(ptr noundef nonnull @.str.11)
  br label %7

7:                                                ; preds = %4, %0, %6
  %.0 = phi i32 [ 0, %6 ], [ 1, %0 ], [ 0, %4 ]
  ret i32 %.0
}